target datalayout = "e-m:e-p270:32:32-p271:32:32-p272:64:64-i64:64-i128:128-f80:128-n8:16:32:64-S128"
target triple = "x86_64-pc-linux-gnu"

@fix_handle = internal global ptr null, align 8
@fix_desegment = internal global i8 1, align 1
@.str.37 = private unnamed_addr constant [6 x i8] c"8=FIX\00", align 1

; Function Attrs: null_pointer_is_valid sspstrong uwtable
define internal i32 @dissect_fix_pdus(ptr noundef %0, ptr noundef %1, ptr noundef %2, ptr noundef %3) #0 {
  %5 = alloca ptr, align 8
  %6 = alloca ptr, align 8
  %7 = alloca ptr, align 8
  %8 = alloca ptr, align 8
  store ptr %0, ptr %5, align 8
  store ptr %1, ptr %6, align 8
  store ptr %2, ptr %7, align 8
  store ptr %3, ptr %8, align 8
  %9 = load ptr, ptr %5, align 8
  %10 = load ptr, ptr %6, align 8
  %11 = load ptr, ptr %7, align 8
  %12 = load i8, ptr @fix_desegment, align 1, !range !6, !noundef !7
  %13 = trunc i8 %12 to i1
  %14 = load ptr, ptr %8, align 8
  call void @tcp_dissect_pdus(ptr noundef %9, ptr noundef %10, ptr noundef %11, i1 noundef zeroext %13, i32 noundef 24, ptr noundef @get_fix_pdu_len, ptr noundef @dissect_fix_packet, ptr noundef %14)
  %15 = load ptr, ptr %5, align 8
  %16 = call i32 @tvb_captured_length(ptr noundef %15)
  ret i32 %16
}

; Function Attrs: null_pointer_is_valid sspstrong uwtable
define internal i32 @fix_marker(ptr noundef %0, i32 noundef %1) #0 {
  %3 = alloca ptr, align 8
  %4 = alloca i32, align 4
  store ptr %0, ptr %3, align 8
  store i32 %1, ptr %4, align 4
  %5 = load ptr, ptr %3, align 8
  %6 = load i32, ptr %4, align 4
  %7 = call i32 @tvb_strneql(ptr noundef %5, i32 noundef %6, ptr noundef @.str.37, i64 noundef 5)
  ret i32 %7
}

; Function Attrs: null_pointer_is_valid sspstrong uwtable
define internal zeroext i1 @dissect_fix_heur(ptr noundef %0, ptr noundef %1, ptr noundef %2, ptr noundef %3) #0 {
  %5 = alloca i1, align 1
  %6 = alloca ptr, align 8
  %7 = alloca ptr, align 8
  %8 = alloca ptr, align 8
  %9 = alloca ptr, align 8
  %10 = alloca ptr, align 8
  %11 = alloca i32, align 4
  store ptr %0, ptr %6, align 8
  store ptr %1, ptr %7, align 8
  store ptr %2, ptr %8, align 8
  store ptr %3, ptr %9, align 8
  call void @llvm.lifetime.start.p0(i64 8, ptr %10) #7
  %12 = load ptr, ptr %6, align 8
  %13 = call i32 @fix_marker(ptr noundef %12, i32 noundef 0)
  %14 = icmp ne i32 %13, 0
  br i1 %14, label %15, label %16

15:                                               ; preds = %4
  store i1 false, ptr %5, align 1
  store i32 1, ptr %11, align 4
  br label %26

16:                                               ; preds = %4
  %17 = load ptr, ptr %7, align 8
  %18 = call ptr @find_or_create_conversation(ptr noundef %17)
  store ptr %18, ptr %10, align 8
  %19 = load ptr, ptr %10, align 8
  %20 = load ptr, ptr @fix_handle, align 8
  call void @conversation_set_dissector(ptr noundef %19, ptr noundef %20)
  %21 = load ptr, ptr %6, align 8
  %22 = load ptr, ptr %7, align 8
  %23 = load ptr, ptr %8, align 8
  %24 = load ptr, ptr %9, align 8
  %25 = call i32 @dissect_fix_pdus(ptr noundef %21, ptr noundef %22, ptr noundef %23, ptr noundef %24)
  store i1 true, ptr %5, align 1
  store i32 1, ptr %11, align 4
  br label %26

26:                                               ; preds = %16, %15
  call void @llvm.lifetime.end.p0(i64 8, ptr %10) #7
  %27 = load i1, ptr %5, align 1
  ret i1 %27
}