; Function Attrs: null_pointer_is_valid sspstrong uwtable
define internal noundef zeroext i1 @dissect_fix_heur(ptr noundef %0, ptr noundef %1, ptr noundef %2, ptr noundef %3) #0 {
  %5 = tail call i32 @tvb_strneql(ptr noundef %0, i32 noundef 0, ptr noundef nonnull @.str.37, i64 noundef 5)
  %.not = icmp eq i32 %5, 0
  br i1 %.not, label %6, label %12

6:                                                ; preds = %4
  %7 = tail call ptr @find_or_create_conversation(ptr noundef %1)
  %8 = load ptr, ptr @fix_handle, align 8
  tail call void @conversation_set_dissector(ptr noundef %7, ptr noundef %8)
  %9 = load i8, ptr @fix_desegment, align 1, !range !6, !noundef !7
  %10 = trunc nuw i8 %9 to i1
  tail call void @tcp_dissect_pdus(ptr noundef %0, ptr noundef %1, ptr noundef %2, i1 noundef zeroext %10, i32 noundef 24, ptr noundef nonnull @get_fix_pdu_len, ptr noundef nonnull @dissect_fix_packet, ptr noundef %3)
  %11 = tail call i32 @tvb_captured_length(ptr noundef %0)
  br label %12

12:                                               ; preds = %4, %6
  ret i1 %.not
}